; Function Attrs: mustprogress uwtable
define void @_ZNK10open_spiel9solitaire4Move8ToStringB5cxx11Eb(ptr dead_on_unwind noalias nonnull writable sret(%"class.std::__cxx11::basic_string") align 8 %0, ptr nocapture noundef nonnull readonly align 4 dereferenceable(40) %1, i1 noundef zeroext %2) local_unnamed_addr #3 align 2 personality ptr @__gxx_personality_v0 {
  %4 = alloca [5 x %"class.absl::debian2::string_view"], align 8
  %5 = alloca %"class.std::__cxx11::basic_string", align 8
  %6 = alloca %"class.std::__cxx11::basic_string", align 8
  tail call void @_ZNSt7__cxx1112basic_stringIcSt11char_traitsIcESaIcEEC1Ev(ptr noundef nonnull align 8 dereferenceable(32) %0) #31
  invoke void @_ZNK10open_spiel9solitaire4Card8ToStringB5cxx11Eb(ptr dead_on_unwind nonnull writable sret(%"class.std::__cxx11::basic_string") align 8 %5, ptr noundef nonnull align 4 dereferenceable(20) %1, i1 noundef zeroext %2)
          to label %7 unwind label %28

7:                                                ; preds = %3
  %8 = call noundef ptr @_ZNKSt7__cxx1112basic_stringIcSt11char_traitsIcESaIcEE4dataEv(ptr noundef nonnull align 8 dereferenceable(32) %5) #31
  %9 = call noundef i64 @_ZNKSt7__cxx1112basic_stringIcSt11char_traitsIcESaIcEE4sizeEv(ptr noundef nonnull align 8 dereferenceable(32) %5) #31
  %10 = icmp sgt i64 %9, -1
  br i1 %10, label %_ZN4absl7debian28AlphaNumC2EPKc.exit10, label %11

11:                                               ; preds = %7
  call void @llvm.trap()
  unreachable

_ZN4absl7debian28AlphaNumC2EPKc.exit10:           ; preds = %7
  %12 = getelementptr inbounds nuw i8, ptr %1, i64 20
  invoke void @_ZNK10open_spiel9solitaire4Card8ToStringB5cxx11Eb(ptr dead_on_unwind nonnull writable sret(%"class.std::__cxx11::basic_string") align 8 %6, ptr noundef nonnull align 4 dereferenceable(20) %12, i1 noundef zeroext %2)
          to label %13 unwind label %30

13:                                               ; preds = %_ZN4absl7debian28AlphaNumC2EPKc.exit10
  %14 = call noundef ptr @_ZNKSt7__cxx1112basic_stringIcSt11char_traitsIcESaIcEE4dataEv(ptr noundef nonnull align 8 dereferenceable(32) %6) #31
  %15 = call noundef i64 @_ZNKSt7__cxx1112basic_stringIcSt11char_traitsIcESaIcEE4sizeEv(ptr noundef nonnull align 8 dereferenceable(32) %6) #31
  %16 = icmp sgt i64 %15, -1
  br i1 %16, label %_ZN4absl7debian28AlphaNumC2ISaIcEEERKNSt7__cxx1112basic_stringIcSt11char_traitsIcET_EE.exit11, label %17

17:                                               ; preds = %13
  call void @llvm.trap()
  unreachable

_ZN4absl7debian28AlphaNumC2ISaIcEEERKNSt7__cxx1112basic_stringIcSt11char_traitsIcET_EE.exit11: ; preds = %13
  call void @llvm.lifetime.start.p0(i64 80, ptr nonnull %4)
  store ptr %8, ptr %4, align 8
  %18 = getelementptr inbounds nuw i8, ptr %4, i64 8
  store i64 %9, ptr %18, align 8
  %19 = getelementptr inbounds i8, ptr %4, i64 16
  store ptr @.str.38, ptr %19, align 8
  %20 = getelementptr inbounds i8, ptr %4, i64 24
  store i64 1, ptr %20, align 8
  %21 = getelementptr inbounds i8, ptr %4, i64 32
  store ptr @.str.47, ptr %21, align 8
  %22 = getelementptr inbounds i8, ptr %4, i64 40
  store i64 3, ptr %22, align 8
  %23 = getelementptr inbounds i8, ptr %4, i64 48
  store ptr @.str.38, ptr %23, align 8
  %24 = getelementptr inbounds i8, ptr %4, i64 56
  store i64 1, ptr %24, align 8
  %25 = getelementptr inbounds i8, ptr %4, i64 64
  store ptr %14, ptr %25, align 8
  %26 = getelementptr inbounds i8, ptr %4, i64 72
  store i64 %15, ptr %26, align 8
  invoke void @_ZN4absl7debian216strings_internal12AppendPiecesEPNSt7__cxx1112basic_stringIcSt11char_traitsIcESaIcEEESt16initializer_listINS0_11string_viewEE(ptr noundef nonnull %0, ptr nonnull %4, i64 5)
          to label %27 unwind label %32

27:                                               ; preds = %_ZN4absl7debian28AlphaNumC2ISaIcEEERKNSt7__cxx1112basic_stringIcSt11char_traitsIcET_EE.exit11
  call void @llvm.lifetime.end.p0(i64 80, ptr nonnull %4)
  call void @_ZNSt7__cxx1112basic_stringIcSt11char_traitsIcESaIcEED1Ev(ptr noundef nonnull align 8 dereferenceable(32) %6) #31
  call void @_ZNSt7__cxx1112basic_stringIcSt11char_traitsIcESaIcEED1Ev(ptr noundef nonnull align 8 dereferenceable(32) %5) #31
  ret void

28:                                               ; preds = %3
  %29 = landingpad { ptr, i32 }
          cleanup
  br label %35

30:                                               ; preds = %_ZN4absl7debian28AlphaNumC2EPKc.exit10
  %31 = landingpad { ptr, i32 }
          cleanup
  br label %34

32:                                               ; preds = %_ZN4absl7debian28AlphaNumC2ISaIcEEERKNSt7__cxx1112basic_stringIcSt11char_traitsIcET_EE.exit11
  %33 = landingpad { ptr, i32 }
          cleanup
  call void @_ZNSt7__cxx1112basic_stringIcSt11char_traitsIcESaIcEED1Ev(ptr noundef nonnull align 8 dereferenceable(32) %6) #31
  br label %34

34:                                               ; preds = %32, %30
  %.pn = phi { ptr, i32 } [ %33, %32 ], [ %31, %30 ]
  call void @_ZNSt7__cxx1112basic_stringIcSt11char_traitsIcESaIcEED1Ev(ptr noundef nonnull align 8 dereferenceable(32) %5) #31
  br label %35

35:                                               ; preds = %34, %28
  %.pn.pn = phi { ptr, i32 } [ %.pn, %34 ], [ %29, %28 ]
  call void @_ZNSt7__cxx1112basic_stringIcSt11char_traitsIcESaIcEED1Ev(ptr noundef nonnull align 8 dereferenceable(32) %0) #31
  resume { ptr, i32 } %.pn.pn
}